; Function Attrs: mustprogress uwtable
define noundef nonnull align 8 dereferenceable(8) ptr @_ZN2cv4gapi4s11nlsERNS1_8IOStreamERKNS_6Point_IfEE(ptr noundef nonnull align 8 dereferenceable(8) %0, ptr noundef nonnull readonly align 4 captures(none) dereferenceable(8) %1) local_unnamed_addr #3 {
  %3 = load float, ptr %1, align 4, !tbaa !11
  %4 = load ptr, ptr %0, align 8, !tbaa !8
  %5 = getelementptr inbounds nuw i8, ptr %4, i64 80
  %6 = load ptr, ptr %5, align 8
  %7 = tail call noundef nonnull align 8 dereferenceable(8) ptr %6(ptr noundef nonnull align 8 dereferenceable(8) %0, float noundef %3)
  %8 = getelementptr inbounds nuw i8, ptr %1, i64 4
  %9 = load float, ptr %8, align 4, !tbaa !14
  %10 = load ptr, ptr %7, align 8, !tbaa !8
  %11 = getelementptr inbounds nuw i8, ptr %10, i64 80
  %12 = load ptr, ptr %11, align 8
  %13 = tail call noundef nonnull align 8 dereferenceable(8) ptr %12(ptr noundef nonnull align 8 dereferenceable(8) %7, float noundef %9)
  ret ptr %13
}